target datalayout = "e-m:e-p270:32:32-p271:32:32-p272:64:64-i64:64-i128:128-f80:128-n8:16:32:64-S128"
target triple = "x86_64-pc-linux-gnu"

%struct.freelist = type { ptr, ptr, i32 }
%struct.Edge = type { double, double, double, [2 x ptr], [2 x ptr] }

@efl = internal global %struct.freelist zeroinitializer, align 8

; Function Attrs: nounwind uwtable
define void @endpoint(ptr noundef %0, i32 noundef %1, ptr noundef %2) #0 {
  %4 = alloca ptr, align 8
  %5 = alloca i32, align 4
  %6 = alloca ptr, align 8
  store ptr %0, ptr %4, align 8, !tbaa !8
  store i32 %1, ptr %5, align 4, !tbaa !22
  store ptr %2, ptr %6, align 8, !tbaa !3
  %7 = load ptr, ptr %6, align 8, !tbaa !3
  %8 = load ptr, ptr %4, align 8, !tbaa !8
  %9 = getelementptr inbounds nuw %struct.Edge, ptr %8, i32 0, i32 3
  %10 = load i32, ptr %5, align 4, !tbaa !22
  %11 = sext i32 %10 to i64
  %12 = getelementptr inbounds [2 x ptr], ptr %9, i64 0, i64 %11
  store ptr %7, ptr %12, align 8, !tbaa !3
  %13 = load ptr, ptr %6, align 8, !tbaa !3
  call void @ref(ptr noundef %13)
  %14 = load ptr, ptr %4, align 8, !tbaa !8
  %15 = getelementptr inbounds nuw %struct.Edge, ptr %14, i32 0, i32 3
  %16 = load i32, ptr %5, align 4, !tbaa !22
  %17 = sub nsw i32 1, %16
  %18 = sext i32 %17 to i64
  %19 = getelementptr inbounds [2 x ptr], ptr %15, i64 0, i64 %18
  %20 = load ptr, ptr %19, align 8, !tbaa !3
  %21 = icmp eq ptr %20, null
  br i1 %21, label %22, label %23

22:                                               ; preds = %3
  br label %34

23:                                               ; preds = %3
  %24 = load ptr, ptr %4, align 8, !tbaa !8
  call void @clip_line(ptr noundef %24)
  %25 = load ptr, ptr %4, align 8, !tbaa !8
  %26 = getelementptr inbounds nuw %struct.Edge, ptr %25, i32 0, i32 4
  %27 = getelementptr inbounds [2 x ptr], ptr %26, i64 0, i64 0
  %28 = load ptr, ptr %27, align 8, !tbaa !3
  call void @deref(ptr noundef %28)
  %29 = load ptr, ptr %4, align 8, !tbaa !8
  %30 = getelementptr inbounds nuw %struct.Edge, ptr %29, i32 0, i32 4
  %31 = getelementptr inbounds [2 x ptr], ptr %30, i64 0, i64 1
  %32 = load ptr, ptr %31, align 8, !tbaa !3
  call void @deref(ptr noundef %32)
  %33 = load ptr, ptr %4, align 8, !tbaa !8
  call void @makefree(ptr noundef %33, ptr noundef @efl)
  br label %34

34:                                               ; preds = %23, %22
  ret void
}