; Function Attrs: nounwind uwtable
define void @endpoint(ptr noundef %0, i32 noundef %1, ptr noundef %2) local_unnamed_addr #0 {
  %4 = getelementptr inbounds nuw i8, ptr %0, i64 24
  %5 = sext i32 %1 to i64
  %6 = getelementptr inbounds [2 x ptr], ptr %4, i64 0, i64 %5
  store ptr %2, ptr %6, align 8, !tbaa !3
  tail call void @ref(ptr noundef %2) #4
  %7 = sub nsw i32 1, %1
  %8 = sext i32 %7 to i64
  %9 = getelementptr inbounds [2 x ptr], ptr %4, i64 0, i64 %8
  %10 = load ptr, ptr %9, align 8, !tbaa !3
  %11 = icmp eq ptr %10, null
  br i1 %11, label %17, label %12

12:                                               ; preds = %3
  tail call void @clip_line(ptr noundef nonnull %0)
  %13 = getelementptr inbounds nuw i8, ptr %0, i64 40
  %14 = load ptr, ptr %13, align 8, !tbaa !3
  tail call void @deref(ptr noundef %14) #4
  %15 = getelementptr inbounds nuw i8, ptr %0, i64 48
  %16 = load ptr, ptr %15, align 8, !tbaa !3
  tail call void @deref(ptr noundef %16) #4
  tail call void @makefree(ptr noundef nonnull %0, ptr noundef nonnull @efl) #4
  br label %17

17:                                               ; preds = %3, %12
  ret void
}